target datalayout = "e-m:e-p270:32:32-p271:32:32-p272:64:64-i64:64-i128:128-f80:128-n8:16:32:64-S128"
target triple = "x86_64-pc-linux-gnu"

%struct.DICTIONARY_ID = type { i64 }
%"class.std::__shared_count" = type { ptr }
%"class.toku::locktree" = type { ptr, %struct.DICTIONARY_ID, i32, [4 x i8], %"class.toku::comparator", ptr, ptr, ptr, ptr, %"struct.toku::lt_lock_request_info", i64, %"class.toku::range_buffer", i32, i64, i64 }
%"class.toku::comparator" = type <{ ptr, ptr, i8, [7 x i8] }>
%"struct.toku::lt_lock_request_info" = type <{ %"class.toku::omt", %"struct.std::atomic", [7 x i8], %"class.std::shared_ptr.0", i8, [7 x i8], %"struct.toku::lt_counters", %"struct.std::atomic.3", i64, %struct.toku_mutex_t, %struct.toku_cond_t, i8, [7 x i8] }>
%"class.toku::omt" = type { i8, i32, %union.anon }
%union.anon = type { %"struct.toku::omt<toku::lock_request *>::omt_array" }
%"struct.toku::omt<toku::lock_request *>::omt_array" = type { i32, i32, ptr }
%"struct.std::atomic" = type { %"struct.std::__atomic_base" }
%"struct.std::__atomic_base" = type { i8 }
%"class.std::shared_ptr.0" = type { %"class.std::__shared_ptr.1" }
%"class.std::__shared_ptr.1" = type { ptr, %"class.std::__shared_count" }
%"struct.toku::lt_counters" = type { i64, i64, i64, i64, i64 }
%"struct.std::atomic.3" = type { %"struct.std::__atomic_base.4" }
%"struct.std::__atomic_base.4" = type { i64 }
%struct.toku_mutex_t = type { %union.pthread_mutex_t, ptr }
%union.pthread_mutex_t = type { %struct.__pthread_mutex_s }
%struct.__pthread_mutex_s = type { i32, i32, i32, i32, i32, i16, i16, %struct.__pthread_internal_list }
%struct.__pthread_internal_list = type { ptr, ptr }
%struct.toku_cond_t = type { %union.pthread_cond_t, ptr }
%union.pthread_cond_t = type { %struct.__pthread_cond_s }
%struct.__pthread_cond_s = type { %union.__atomic_wide_counter, %union.__atomic_wide_counter, [2 x i32], [2 x i32], i32, i32, [2 x i32] }
%union.__atomic_wide_counter = type { i64 }
%"class.toku::range_buffer" = type <{ %class.memarena, i32, [4 x i8] }>
%class.memarena = type { %"struct.memarena::arena_chunk", ptr, i32, i64, i64 }
%"struct.memarena::arena_chunk" = type { ptr, i64, i64 }
%"class.toku::keyrange" = type <{ %struct.__toku_dbt, %struct.__toku_dbt, ptr, ptr, i8, [7 x i8] }>
%struct.__toku_dbt = type { ptr, i64, i64, i32 }
%"class.toku::concurrent_tree::locked_keyrange" = type { ptr, %"class.toku::keyrange", ptr }

; Function Attrs: mustprogress uwtable
define noundef i32 @_ZN4toku8locktree12acquire_lockEbmPK10__toku_dbtS3_PNS_9txnid_setE(ptr noundef nonnull align 8 dereferenceable(400) %0, i1 noundef zeroext %1, i64 noundef %2, ptr noundef %3, ptr noundef %4, ptr noundef %5) #0 align 2 {
  %7 = alloca ptr, align 8
  %8 = alloca i8, align 1
  %9 = alloca i64, align 8
  %10 = alloca ptr, align 8
  %11 = alloca ptr, align 8
  %12 = alloca ptr, align 8
  %13 = alloca i32, align 4
  %14 = alloca %"class.toku::concurrent_tree::locked_keyrange", align 8
  %15 = alloca i8, align 1
  store ptr %0, ptr %7, align 8, !tbaa !4
  %16 = zext i1 %1 to i8
  store i8 %16, ptr %8, align 1, !tbaa !67
  store i64 %2, ptr %9, align 8, !tbaa !46
  store ptr %3, ptr %10, align 8, !tbaa !89
  store ptr %4, ptr %11, align 8, !tbaa !89
  store ptr %5, ptr %12, align 8, !tbaa !97
  %17 = load ptr, ptr %7, align 8
  call void @llvm.lifetime.start.p0(i64 4, ptr %13) #18
  store i32 0, ptr %13, align 4, !tbaa !81
  call void @llvm.lifetime.start.p0(i64 104, ptr %14) #18
  %18 = getelementptr inbounds nuw %"class.toku::locktree", ptr %17, i32 0, i32 7
  %19 = load ptr, ptr %18, align 8, !tbaa !49
  call void @_ZN4toku15concurrent_tree15locked_keyrange7prepareEPS0_(ptr noundef nonnull align 8 dereferenceable(104) %14, ptr noundef %19)
  call void @llvm.lifetime.start.p0(i64 1, ptr %15) #18
  %20 = load i64, ptr %9, align 8, !tbaa !46
  %21 = load ptr, ptr %10, align 8, !tbaa !89
  %22 = load ptr, ptr %11, align 8, !tbaa !89
  %23 = load i8, ptr %8, align 1, !tbaa !67, !range !68, !noundef !69
  %24 = trunc i8 %23 to i1
  %25 = call noundef zeroext i1 @_ZN4toku8locktree15sto_try_acquireEPvmPK10__toku_dbtS4_b(ptr noundef nonnull align 8 dereferenceable(400) %17, ptr noundef %14, i64 noundef %20, ptr noundef %21, ptr noundef %22, i1 noundef zeroext %24)
  %26 = zext i1 %25 to i8
  store i8 %26, ptr %15, align 1, !tbaa !67
  %27 = load i8, ptr %15, align 1, !tbaa !67, !range !68, !noundef !69
  %28 = trunc i8 %27 to i1
  br i1 %28, label %37, label %29

29:                                               ; preds = %6
  %30 = load i64, ptr %9, align 8, !tbaa !46
  %31 = load ptr, ptr %10, align 8, !tbaa !89
  %32 = load ptr, ptr %11, align 8, !tbaa !89
  %33 = load i8, ptr %8, align 1, !tbaa !67, !range !68, !noundef !69
  %34 = trunc i8 %33 to i1
  %35 = load ptr, ptr %12, align 8, !tbaa !97
  %36 = call noundef i32 @_ZN4toku8locktree25acquire_lock_consolidatedEPvmPK10__toku_dbtS4_bPNS_9txnid_setE(ptr noundef nonnull align 8 dereferenceable(400) %17, ptr noundef %14, i64 noundef %30, ptr noundef %31, ptr noundef %32, i1 noundef zeroext %34, ptr noundef %35)
  store i32 %36, ptr %13, align 4, !tbaa !81
  br label %37

37:                                               ; preds = %29, %6
  call void @_ZN4toku15concurrent_tree15locked_keyrange7releaseEv(ptr noundef nonnull align 8 dereferenceable(104) %14)
  %38 = load i32, ptr %13, align 4, !tbaa !81
  call void @llvm.lifetime.end.p0(i64 1, ptr %15) #18
  call void @llvm.lifetime.end.p0(i64 104, ptr %14) #18
  call void @llvm.lifetime.end.p0(i64 4, ptr %13) #18
  ret i32 %38
}

; Function Attrs: mustprogress uwtable
define noundef i32 @_ZN4toku8locktree16try_acquire_lockEbmPK10__toku_dbtS3_PNS_9txnid_setEb(ptr noundef nonnull align 8 dereferenceable(400) %0, i1 noundef zeroext %1, i64 noundef %2, ptr noundef %3, ptr noundef %4, ptr noundef %5, i1 noundef zeroext %6) #0 align 2 {
  %8 = alloca ptr, align 8
  %9 = alloca i8, align 1
  %10 = alloca i64, align 8
  %11 = alloca ptr, align 8
  %12 = alloca ptr, align 8
  %13 = alloca ptr, align 8
  %14 = alloca i8, align 1
  %15 = alloca i32, align 4
  store ptr %0, ptr %8, align 8, !tbaa !4
  %16 = zext i1 %1 to i8
  store i8 %16, ptr %9, align 1, !tbaa !67
  store i64 %2, ptr %10, align 8, !tbaa !46
  store ptr %3, ptr %11, align 8, !tbaa !89
  store ptr %4, ptr %12, align 8, !tbaa !89
  store ptr %5, ptr %13, align 8, !tbaa !97
  %17 = zext i1 %6 to i8
  store i8 %17, ptr %14, align 1, !tbaa !67
  %18 = load ptr, ptr %8, align 8
  call void @llvm.lifetime.start.p0(i64 4, ptr %15) #18
  %19 = getelementptr inbounds nuw %"class.toku::locktree", ptr %18, i32 0, i32 0
  %20 = load ptr, ptr %19, align 8, !tbaa !15
  %21 = icmp eq ptr %20, null
  br i1 %21, label %22, label %23

22:                                               ; preds = %7
  br label %29

23:                                               ; preds = %7
  %24 = getelementptr inbounds nuw %"class.toku::locktree", ptr %18, i32 0, i32 0
  %25 = load ptr, ptr %24, align 8, !tbaa !15
  %26 = load i8, ptr %14, align 1, !tbaa !67, !range !68, !noundef !69
  %27 = trunc i8 %26 to i1
  %28 = call noundef i32 @_ZN4toku16locktree_manager30check_current_lock_constraintsEb(ptr noundef nonnull align 8 dereferenceable(392) %25, i1 noundef zeroext %27)
  br label %29

29:                                               ; preds = %23, %22
  %30 = phi i32 [ 0, %22 ], [ %28, %23 ]
  store i32 %30, ptr %15, align 4, !tbaa !81
  %31 = load i32, ptr %15, align 4, !tbaa !81
  %32 = icmp eq i32 %31, 0
  br i1 %32, label %33, label %41

33:                                               ; preds = %29
  %34 = load i8, ptr %9, align 1, !tbaa !67, !range !68, !noundef !69
  %35 = trunc i8 %34 to i1
  %36 = load i64, ptr %10, align 8, !tbaa !46
  %37 = load ptr, ptr %11, align 8, !tbaa !89
  %38 = load ptr, ptr %12, align 8, !tbaa !89
  %39 = load ptr, ptr %13, align 8, !tbaa !97
  %40 = call noundef i32 @_ZN4toku8locktree12acquire_lockEbmPK10__toku_dbtS3_PNS_9txnid_setE(ptr noundef nonnull align 8 dereferenceable(400) %18, i1 noundef zeroext %35, i64 noundef %36, ptr noundef %37, ptr noundef %38, ptr noundef %39)
  store i32 %40, ptr %15, align 4, !tbaa !81
  br label %41

41:                                               ; preds = %33, %29
  %42 = load i32, ptr %15, align 4, !tbaa !81
  call void @llvm.lifetime.end.p0(i64 4, ptr %15) #18
  ret i32 %42
}

; Function Attrs: mustprogress uwtable
define noundef i32 @_ZN4toku8locktree17acquire_read_lockEmPK10__toku_dbtS3_PNS_9txnid_setEb(ptr noundef nonnull align 8 dereferenceable(400) %0, i64 noundef %1, ptr noundef %2, ptr noundef %3, ptr noundef %4, i1 noundef zeroext %5) #0 align 2 {
  %7 = alloca ptr, align 8
  %8 = alloca i64, align 8
  %9 = alloca ptr, align 8
  %10 = alloca ptr, align 8
  %11 = alloca ptr, align 8
  %12 = alloca i8, align 1
  store ptr %0, ptr %7, align 8, !tbaa !4
  store i64 %1, ptr %8, align 8, !tbaa !46
  store ptr %2, ptr %9, align 8, !tbaa !89
  store ptr %3, ptr %10, align 8, !tbaa !89
  store ptr %4, ptr %11, align 8, !tbaa !97
  %13 = zext i1 %5 to i8
  store i8 %13, ptr %12, align 1, !tbaa !67
  %14 = load ptr, ptr %7, align 8
  %15 = load i64, ptr %8, align 8, !tbaa !46
  %16 = load ptr, ptr %9, align 8, !tbaa !89
  %17 = load ptr, ptr %10, align 8, !tbaa !89
  %18 = load ptr, ptr %11, align 8, !tbaa !97
  %19 = load i8, ptr %12, align 1, !tbaa !67, !range !68, !noundef !69
  %20 = trunc i8 %19 to i1
  %21 = call noundef i32 @_ZN4toku8locktree16try_acquire_lockEbmPK10__toku_dbtS3_PNS_9txnid_setEb(ptr noundef nonnull align 8 dereferenceable(400) %14, i1 noundef zeroext false, i64 noundef %15, ptr noundef %16, ptr noundef %17, ptr noundef %18, i1 noundef zeroext %20)
  ret i32 %21
}